; ModuleID = '31/293.c'
source_filename = "31/293.c"
target datalayout = "e-m:e-p270:32:32-p271:32:32-p272:64:64-i64:64-f80:128-n8:16:32:64-S128"
target triple = "x86_64-pc-linux-gnu"

%struct.student = type { [30 x i8], [30 x i8], [2 x i8], i32, float, [30 x i8], %struct.student* }

@.str = private unnamed_addr constant [13 x i8] c"%s%s%s%d%f%s\00", align 1
@.str.1 = private unnamed_addr constant [19 x i8] c"%s %s %s %d %g %s\0A\00", align 1

; Function Attrs: noinline nounwind uwtable
define dso_local %struct.student* @creat() #0 {
  %1 = alloca i32, align 4
  %2 = alloca %struct.student*, align 8
  %3 = alloca %struct.student*, align 8
  %4 = alloca %struct.student*, align 8
  store i32 0, i32* %1, align 4
  %5 = call noalias i8* @malloc(i64 100) #3
  %6 = bitcast i8* %5 to %struct.student*
  store %struct.student* %6, %struct.student** %4, align 8
  store %struct.student* %6, %struct.student** %3, align 8
  %7 = load %struct.student*, %struct.student** %3, align 8
  %8 = getelementptr inbounds %struct.student, %struct.student* %7, i32 0, i32 0
  %9 = getelementptr inbounds [30 x i8], [30 x i8]* %8, i64 0, i64 0
  %10 = load %struct.student*, %struct.student** %3, align 8
  %11 = getelementptr inbounds %struct.student, %struct.student* %10, i32 0, i32 1
  %12 = getelementptr inbounds [30 x i8], [30 x i8]* %11, i64 0, i64 0
  %13 = load %struct.student*, %struct.student** %3, align 8
  %14 = getelementptr inbounds %struct.student, %struct.student* %13, i32 0, i32 2
  %15 = getelementptr inbounds [2 x i8], [2 x i8]* %14, i64 0, i64 0
  %16 = load %struct.student*, %struct.student** %3, align 8
  %17 = getelementptr inbounds %struct.student, %struct.student* %16, i32 0, i32 3
  %18 = load %struct.student*, %struct.student** %3, align 8
  %19 = getelementptr inbounds %struct.student, %struct.student* %18, i32 0, i32 4
  %20 = load %struct.student*, %struct.student** %3, align 8
  %21 = getelementptr inbounds %struct.student, %struct.student* %20, i32 0, i32 5
  %22 = getelementptr inbounds [30 x i8], [30 x i8]* %21, i64 0, i64 0
  %23 = call i32 (i8*, ...) @__isoc99_scanf(i8* getelementptr inbounds ([13 x i8], [13 x i8]* @.str, i64 0, i64 0), i8* %9, i8* %12, i8* %15, i32* %17, float* %19, i8* %22)
  %24 = load %struct.student*, %struct.student** %4, align 8
  %25 = getelementptr inbounds %struct.student, %struct.student* %24, i32 0, i32 6
  store %struct.student* null, %struct.student** %25, align 8
  br label %26

26:                                               ; preds = %42, %0
  %27 = load %struct.student*, %struct.student** %3, align 8
  %28 = getelementptr inbounds %struct.student, %struct.student* %27, i32 0, i32 0
  %29 = getelementptr inbounds [30 x i8], [30 x i8]* %28, i64 0, i64 0
  %30 = load i8, i8* %29, align 8
  %31 = sext i8 %30 to i32
  %32 = icmp ne i32 %31, 101
  br i1 %32, label %33, label %64

33:                                               ; preds = %26
  %34 = load i32, i32* %1, align 4
  %35 = add nsw i32 %34, 1
  store i32 %35, i32* %1, align 4
  %36 = load i32, i32* %1, align 4
  %37 = icmp sgt i32 %36, 1
  br i1 %37, label %38, label %42

38:                                               ; preds = %33
  %39 = load %struct.student*, %struct.student** %4, align 8
  %40 = load %struct.student*, %struct.student** %3, align 8
  %41 = getelementptr inbounds %struct.student, %struct.student* %40, i32 0, i32 6
  store %struct.student* %39, %struct.student** %41, align 8
  br label %42

42:                                               ; preds = %38, %33
  %43 = load %struct.student*, %struct.student** %3, align 8
  store %struct.student* %43, %struct.student** %4, align 8
  %44 = load %struct.student*, %struct.student** %3, align 8
  store %struct.student* %44, %struct.student** %2, align 8
  %45 = call noalias i8* @malloc(i64 100) #3
  %46 = bitcast i8* %45 to %struct.student*
  store %struct.student* %46, %struct.student** %3, align 8
  %47 = load %struct.student*, %struct.student** %3, align 8
  %48 = getelementptr inbounds %struct.student, %struct.student* %47, i32 0, i32 0
  %49 = getelementptr inbounds [30 x i8], [30 x i8]* %48, i64 0, i64 0
  %50 = load %struct.student*, %struct.student** %3, align 8
  %51 = getelementptr inbounds %struct.student, %struct.student* %50, i32 0, i32 1
  %52 = getelementptr inbounds [30 x i8], [30 x i8]* %51, i64 0, i64 0
  %53 = load %struct.student*, %struct.student** %3, align 8
  %54 = getelementptr inbounds %struct.student, %struct.student* %53, i32 0, i32 2
  %55 = getelementptr inbounds [2 x i8], [2 x i8]* %54, i64 0, i64 0
  %56 = load %struct.student*, %struct.student** %3, align 8
  %57 = getelementptr inbounds %struct.student, %struct.student* %56, i32 0, i32 3
  %58 = load %struct.student*, %struct.student** %3, align 8
  %59 = getelementptr inbounds %struct.student, %struct.student* %58, i32 0, i32 4
  %60 = load %struct.student*, %struct.student** %3, align 8
  %61 = getelementptr inbounds %struct.student, %struct.student* %60, i32 0, i32 5
  %62 = getelementptr inbounds [30 x i8], [30 x i8]* %61, i64 0, i64 0
  %63 = call i32 (i8*, ...) @__isoc99_scanf(i8* getelementptr inbounds ([13 x i8], [13 x i8]* @.str, i64 0, i64 0), i8* %49, i8* %52, i8* %55, i32* %57, float* %59, i8* %62)
  br label %26

64:                                               ; preds = %26
  %65 = load %struct.student*, %struct.student** %2, align 8
  ret %struct.student* %65
}

; Function Attrs: nounwind
declare dso_local noalias i8* @malloc(i64) #1

declare dso_local i32 @__isoc99_scanf(i8*, ...) #2

; Function Attrs: noinline nounwind uwtable
define dso_local i32 @main() #0 {
  %1 = alloca i32, align 4
  %2 = alloca %struct.student*, align 8
  store i32 0, i32* %1, align 4
  %3 = call %struct.student* @creat()
  store %struct.student* %3, %struct.student** %2, align 8
  br label %4

4:                                                ; preds = %31, %0
  %5 = load %struct.student*, %struct.student** %2, align 8
  %6 = getelementptr inbounds %struct.student, %struct.student* %5, i32 0, i32 0
  %7 = getelementptr inbounds [30 x i8], [30 x i8]* %6, i64 0, i64 0
  %8 = load %struct.student*, %struct.student** %2, align 8
  %9 = getelementptr inbounds %struct.student, %struct.student* %8, i32 0, i32 1
  %10 = getelementptr inbounds [30 x i8], [30 x i8]* %9, i64 0, i64 0
  %11 = load %struct.student*, %struct.student** %2, align 8
  %12 = getelementptr inbounds %struct.student, %struct.student* %11, i32 0, i32 2
  %13 = getelementptr inbounds [2 x i8], [2 x i8]* %12, i64 0, i64 0
  %14 = load %struct.student*, %struct.student** %2, align 8
  %15 = getelementptr inbounds %struct.student, %struct.student* %14, i32 0, i32 3
  %16 = load i32, i32* %15, align 8
  %17 = load %struct.student*, %struct.student** %2, align 8
  %18 = getelementptr inbounds %struct.student, %struct.student* %17, i32 0, i32 4
  %19 = load float, float* %18, align 4
  %20 = fpext float %19 to double
  %21 = load %struct.student*, %struct.student** %2, align 8
  %22 = getelementptr inbounds %struct.student, %struct.student* %21, i32 0, i32 5
  %23 = getelementptr inbounds [30 x i8], [30 x i8]* %22, i64 0, i64 0
  %24 = call i32 (i8*, ...) @printf(i8* getelementptr inbounds ([19 x i8], [19 x i8]* @.str.1, i64 0, i64 0), i8* %7, i8* %10, i8* %13, i32 %16, double %20, i8* %23)
  %25 = load %struct.student*, %struct.student** %2, align 8
  %26 = getelementptr inbounds %struct.student, %struct.student* %25, i32 0, i32 6
  %27 = load %struct.student*, %struct.student** %26, align 8
  store %struct.student* %27, %struct.student** %2, align 8
  %28 = load %struct.student*, %struct.student** %2, align 8
  %29 = icmp eq %struct.student* %28, null
  br i1 %29, label %30, label %31

30:                                               ; preds = %4
  br label %32

31:                                               ; preds = %4
  br label %4

32:                                               ; preds = %30
  %33 = load i32, i32* %1, align 4
  ret i32 %33
}

declare dso_local i32 @printf(i8*, ...) #2


!llvm.module.flags = !{!0}
!llvm.ident = !{!1}

!0 = !{i32 1, !"wchar_size", i32 4}
!1 = !{!"clang version 10.0.0-4ubuntu1 "}
